target datalayout = "e-m:e-p270:32:32-p271:32:32-p272:64:64-i64:64-i128:128-f80:128-n8:16:32:64-S128"
target triple = "x86_64-pc-linux-gnu"

%struct.URLContext = type { ptr, ptr, ptr, ptr, i32, i32, i32, i32, %struct.AVIOInterruptCB, i64, ptr, ptr, i32 }
%struct.AVIOInterruptCB = type { ptr, ptr }
%struct.IcecastContext = type { ptr, ptr, i32, ptr, ptr, ptr, ptr, i32, ptr, ptr, i32, ptr, ptr, i32 }

@icecast_write.oggs = internal constant [4 x i8] c"OggS", align 1
@icecast_write.webm = internal constant [4 x i8] c"\1AE\DF\A3", align 1
@icecast_write.opus = internal constant [8 x i8] c"OpusHead", align 1
@.str.30 = private unnamed_addr constant [53 x i8] c"Streaming Ogg but appropriate content type NOT set!\0A\00", align 1
@.str.31 = private unnamed_addr constant [43 x i8] c"Set it with -content_type application/ogg\0A\00", align 1
@.str.32 = private unnamed_addr constant [54 x i8] c"Streaming Opus but appropriate content type NOT set!\0A\00", align 1
@.str.33 = private unnamed_addr constant [37 x i8] c"Set it with -content_type audio/ogg\0A\00", align 1
@.str.34 = private unnamed_addr constant [54 x i8] c"Streaming WebM but appropriate content type NOT set!\0A\00", align 1
@.str.35 = private unnamed_addr constant [38 x i8] c"Set it with -content_type video/webm\0A\00", align 1
@.str.36 = private unnamed_addr constant [51 x i8] c"It seems you are streaming an unsupported format.\0A\00", align 1
@.str.37 = private unnamed_addr constant [60 x i8] c"It might work, but is not officially supported in Icecast!\0A\00", align 1

; Function Attrs: inlinehint nounwind uwtable
define internal i32 @ffurl_write(ptr noundef %0, ptr noundef %1, i32 noundef %2) #3 {
  %4 = alloca ptr, align 8
  %5 = alloca ptr, align 8
  %6 = alloca i32, align 4
  store ptr %0, ptr %4, align 8, !tbaa !4
  store ptr %1, ptr %5, align 8, !tbaa !9
  store i32 %2, ptr %6, align 4, !tbaa !11
  %7 = load ptr, ptr %4, align 8, !tbaa !4
  %8 = load ptr, ptr %5, align 8, !tbaa !9
  %9 = load i32, ptr %6, align 4, !tbaa !11
  %10 = call i32 @ffurl_write2(ptr noundef %7, ptr noundef %8, i32 noundef %9)
  ret i32 %10
}

; Function Attrs: nounwind uwtable
define internal i32 @icecast_write(ptr noundef %0, ptr noundef %1, i32 noundef %2) #0 {
  %4 = alloca ptr, align 8
  %5 = alloca ptr, align 8
  %6 = alloca i32, align 4
  %7 = alloca ptr, align 8
  store ptr %0, ptr %4, align 8, !tbaa !4
  store ptr %1, ptr %5, align 8, !tbaa !9
  store i32 %2, ptr %6, align 4, !tbaa !11
  call void @llvm.lifetime.start.p0(i64 8, ptr %7) #6
  %8 = load ptr, ptr %4, align 8, !tbaa !4
  %9 = getelementptr inbounds nuw %struct.URLContext, ptr %8, i32 0, i32 2
  %10 = load ptr, ptr %9, align 8, !tbaa !13
  store ptr %10, ptr %7, align 8, !tbaa !19
  %11 = load ptr, ptr %7, align 8, !tbaa !19
  %12 = getelementptr inbounds nuw %struct.IcecastContext, ptr %11, i32 0, i32 2
  %13 = load i32, ptr %12, align 8, !tbaa !37
  %14 = icmp ne i32 %13, 0
  br i1 %14, label %53, label %15

15:                                               ; preds = %3
  %16 = load ptr, ptr %7, align 8, !tbaa !19
  %17 = getelementptr inbounds nuw %struct.IcecastContext, ptr %16, i32 0, i32 2
  store i32 1, ptr %17, align 8, !tbaa !37
  %18 = load ptr, ptr %7, align 8, !tbaa !19
  %19 = getelementptr inbounds nuw %struct.IcecastContext, ptr %18, i32 0, i32 4
  %20 = load ptr, ptr %19, align 8, !tbaa !30
  %21 = icmp ne ptr %20, null
  br i1 %21, label %52, label %22

22:                                               ; preds = %15
  %23 = load i32, ptr %6, align 4, !tbaa !11
  %24 = icmp sge i32 %23, 8
  br i1 %24, label %25, label %52

25:                                               ; preds = %22
  %26 = load ptr, ptr %5, align 8, !tbaa !9
  %27 = call i32 @memcmp(ptr noundef %26, ptr noundef @icecast_write.oggs, i64 noundef 4) #7
  %28 = icmp eq i32 %27, 0
  br i1 %28, label %29, label %32

29:                                               ; preds = %25
  %30 = load ptr, ptr %4, align 8, !tbaa !4
  call void (ptr, i32, ptr, ...) @av_log(ptr noundef %30, i32 noundef 24, ptr noundef @.str.30)
  %31 = load ptr, ptr %4, align 8, !tbaa !4
  call void (ptr, i32, ptr, ...) @av_log(ptr noundef %31, i32 noundef 24, ptr noundef @.str.31)
  br label %51

32:                                               ; preds = %25
  %33 = load ptr, ptr %5, align 8, !tbaa !9
  %34 = call i32 @memcmp(ptr noundef %33, ptr noundef @icecast_write.opus, i64 noundef 8) #7
  %35 = icmp eq i32 %34, 0
  br i1 %35, label %36, label %39

36:                                               ; preds = %32
  %37 = load ptr, ptr %4, align 8, !tbaa !4
  call void (ptr, i32, ptr, ...) @av_log(ptr noundef %37, i32 noundef 24, ptr noundef @.str.32)
  %38 = load ptr, ptr %4, align 8, !tbaa !4
  call void (ptr, i32, ptr, ...) @av_log(ptr noundef %38, i32 noundef 24, ptr noundef @.str.33)
  br label %50

39:                                               ; preds = %32
  %40 = load ptr, ptr %5, align 8, !tbaa !9
  %41 = call i32 @memcmp(ptr noundef %40, ptr noundef @icecast_write.webm, i64 noundef 4) #7
  %42 = icmp eq i32 %41, 0
  br i1 %42, label %43, label %46

43:                                               ; preds = %39
  %44 = load ptr, ptr %4, align 8, !tbaa !4
  call void (ptr, i32, ptr, ...) @av_log(ptr noundef %44, i32 noundef 24, ptr noundef @.str.34)
  %45 = load ptr, ptr %4, align 8, !tbaa !4
  call void (ptr, i32, ptr, ...) @av_log(ptr noundef %45, i32 noundef 24, ptr noundef @.str.35)
  br label %49

46:                                               ; preds = %39
  %47 = load ptr, ptr %4, align 8, !tbaa !4
  call void (ptr, i32, ptr, ...) @av_log(ptr noundef %47, i32 noundef 24, ptr noundef @.str.36)
  %48 = load ptr, ptr %4, align 8, !tbaa !4
  call void (ptr, i32, ptr, ...) @av_log(ptr noundef %48, i32 noundef 24, ptr noundef @.str.37)
  br label %49

49:                                               ; preds = %46, %43
  br label %50

50:                                               ; preds = %49, %36
  br label %51

51:                                               ; preds = %50, %29
  br label %52

52:                                               ; preds = %51, %22, %15
  br label %53

53:                                               ; preds = %52, %3
  %54 = load ptr, ptr %7, align 8, !tbaa !19
  %55 = getelementptr inbounds nuw %struct.IcecastContext, ptr %54, i32 0, i32 1
  %56 = load ptr, ptr %55, align 8, !tbaa !38
  %57 = load ptr, ptr %5, align 8, !tbaa !9
  %58 = load i32, ptr %6, align 4, !tbaa !11
  %59 = call i32 @ffurl_write(ptr noundef %56, ptr noundef %57, i32 noundef %58)
  call void @llvm.lifetime.end.p0(i64 8, ptr %7) #6
  ret i32 %59
}