; Function Attrs: nounwind uwtable
define internal i32 @icecast_write(ptr noundef %0, ptr noundef %1, i32 noundef %2) #0 {
  %4 = getelementptr inbounds nuw i8, ptr %0, i64 16
  %5 = load ptr, ptr %4, align 8, !tbaa !4
  %6 = getelementptr inbounds nuw i8, ptr %5, i64 16
  %7 = load i32, ptr %6, align 8, !tbaa !37
  %.not = icmp eq i32 %7, 0
  br i1 %.not, label %8, label %19

8:                                                ; preds = %3
  store i32 1, ptr %6, align 8, !tbaa !37
  %9 = getelementptr inbounds nuw i8, ptr %5, i64 32
  %10 = load ptr, ptr %9, align 8, !tbaa !30
  %11 = icmp eq ptr %10, null
  %12 = icmp sgt i32 %2, 7
  %or.cond = and i1 %12, %11
  br i1 %or.cond, label %13, label %19

13:                                               ; preds = %8
  %bcmp = tail call i32 @bcmp(ptr noundef nonnull dereferenceable(4) %1, ptr noundef nonnull dereferenceable(4) @icecast_write.oggs, i64 4)
  %14 = icmp eq i32 %bcmp, 0
  br i1 %14, label %.sink.split, label %15

15:                                               ; preds = %13
  %bcmp19 = tail call i32 @bcmp(ptr noundef nonnull dereferenceable(8) %1, ptr noundef nonnull dereferenceable(8) @icecast_write.opus, i64 8)
  %16 = icmp eq i32 %bcmp19, 0
  br i1 %16, label %.sink.split, label %17

17:                                               ; preds = %15
  %bcmp20 = tail call i32 @bcmp(ptr noundef nonnull dereferenceable(4) %1, ptr noundef nonnull dereferenceable(4) @icecast_write.webm, i64 4)
  %18 = icmp eq i32 %bcmp20, 0
  %.str.34..str.36 = select i1 %18, ptr @.str.34, ptr @.str.36
  %.str.35..str.37 = select i1 %18, ptr @.str.35, ptr @.str.37
  br label %.sink.split

.sink.split:                                      ; preds = %17, %15, %13
  %.str.32.sink = phi ptr [ @.str.30, %13 ], [ @.str.32, %15 ], [ %.str.34..str.36, %17 ]
  %.str.33.sink = phi ptr [ @.str.31, %13 ], [ @.str.33, %15 ], [ %.str.35..str.37, %17 ]
  tail call void (ptr, i32, ptr, ...) @av_log(ptr noundef nonnull %0, i32 noundef 24, ptr noundef nonnull %.str.32.sink) #6
  tail call void (ptr, i32, ptr, ...) @av_log(ptr noundef nonnull %0, i32 noundef 24, ptr noundef nonnull %.str.33.sink) #6
  br label %19

19:                                               ; preds = %.sink.split, %8, %3
  %20 = getelementptr inbounds nuw i8, ptr %5, i64 8
  %21 = load ptr, ptr %20, align 8, !tbaa !38
  %22 = tail call i32 @ffurl_write2(ptr noundef %21, ptr noundef %1, i32 noundef %2) #6
  ret i32 %22
}